target datalayout = "e-m:e-p270:32:32-p271:32:32-p272:64:64-i64:64-i128:128-f80:128-n8:16:32:64-S128"
target triple = "x86_64-pc-linux-gnu"

%struct._lv_global_t = type { i8, i8, %struct.lv_ll_t, ptr, ptr, %struct.lv_ll_t, i8, i32, i32, ptr, %struct.lv_ll_t, ptr, %struct.lv_ll_t, ptr, ptr, i32, ptr, i8, i32, i32, ptr, i32, %struct.lv_timer_state_t, %struct.lv_anim_state_t, %struct.lv_tick_state_t, %struct._lv_draw_buf_handlers_t, %struct._lv_draw_buf_handlers_t, %struct._lv_draw_buf_handlers_t, %struct.lv_ll_t, ptr, ptr, %struct.lv_draw_global_info_t, [4 x %struct.lv_draw_sw_mask_radius_circle_dsc_t], ptr, ptr, ptr, %struct.lv_tlsf_state_t, %struct.lv_ll_t, ptr, ptr, %struct.lv_style_t, i64, ptr, i32, ptr }
%struct.lv_timer_state_t = type { %struct.lv_ll_t, i8, i8, i8, i8, i32, i8, i32, i32, i32, i32, ptr, ptr }
%struct.lv_anim_state_t = type { i8, i8, ptr, %struct.lv_ll_t }
%struct.lv_tick_state_t = type { i32, i8, ptr, ptr }
%struct._lv_draw_buf_handlers_t = type { ptr, ptr, ptr, ptr, ptr, ptr }
%struct.lv_draw_global_info_t = type { ptr, i32, i32, i32, i32, i8 }
%struct.lv_draw_sw_mask_radius_circle_dsc_t = type { ptr, ptr, ptr, ptr, i32, i32, i32 }
%struct.lv_tlsf_state_t = type { ptr, i64, i64, %struct.lv_ll_t }
%struct.lv_ll_t = type { i32, ptr, ptr }
%struct.lv_style_t = type { ptr, i32, i8 }
%struct._lv_anim_t = type { ptr, ptr, ptr, ptr, ptr, ptr, ptr, ptr, ptr, i32, i32, i32, i32, i32, i32, i32, i32, i32, %union._lv_anim_path_para_t, i32, i8 }
%union._lv_anim_path_para_t = type { %struct.lv_anim_bezier3_para_t }
%struct.lv_anim_bezier3_para_t = type { i16, i16, i16, i16 }

@lv_global = external global %struct._lv_global_t, align 8

; Function Attrs: nounwind uwtable
define internal void @anim_mark_list_change() #0 {
  store i8 1, ptr getelementptr inbounds nuw (%struct._lv_global_t, ptr @lv_global, i32 0, i32 23), align 8, !tbaa !19
  %1 = call ptr @lv_ll_get_head(ptr noundef getelementptr inbounds nuw (%struct.lv_anim_state_t, ptr getelementptr inbounds nuw (%struct._lv_global_t, ptr @lv_global, i32 0, i32 23), i32 0, i32 3))
  %2 = icmp eq ptr %1, null
  br i1 %2, label %3, label %5

3:                                                ; preds = %0
  %4 = load ptr, ptr getelementptr inbounds nuw (%struct.lv_anim_state_t, ptr getelementptr inbounds nuw (%struct._lv_global_t, ptr @lv_global, i32 0, i32 23), i32 0, i32 2), align 8, !tbaa !3
  call void @lv_timer_pause(ptr noundef %4)
  br label %7

5:                                                ; preds = %0
  %6 = load ptr, ptr getelementptr inbounds nuw (%struct.lv_anim_state_t, ptr getelementptr inbounds nuw (%struct._lv_global_t, ptr @lv_global, i32 0, i32 23), i32 0, i32 2), align 8, !tbaa !3
  call void @lv_timer_resume(ptr noundef %6)
  br label %7

7:                                                ; preds = %5, %3
  ret void
}

; Function Attrs: nounwind uwtable
define internal void @remove_anim(ptr noundef %0) #0 {
  %2 = alloca ptr, align 8
  %3 = alloca ptr, align 8
  store ptr %0, ptr %2, align 8, !tbaa !21
  call void @llvm.lifetime.start.p0(i64 8, ptr %3) #4
  %4 = load ptr, ptr %2, align 8, !tbaa !21
  store ptr %4, ptr %3, align 8, !tbaa !21
  %5 = load ptr, ptr %2, align 8, !tbaa !21
  call void @lv_ll_remove(ptr noundef getelementptr inbounds nuw (%struct.lv_anim_state_t, ptr getelementptr inbounds nuw (%struct._lv_global_t, ptr @lv_global, i32 0, i32 23), i32 0, i32 3), ptr noundef %5)
  %6 = load ptr, ptr %3, align 8, !tbaa !21
  %7 = getelementptr inbounds nuw %struct._lv_anim_t, ptr %6, i32 0, i32 5
  %8 = load ptr, ptr %7, align 8, !tbaa !46
  %9 = icmp ne ptr %8, null
  br i1 %9, label %10, label %15

10:                                               ; preds = %1
  %11 = load ptr, ptr %3, align 8, !tbaa !21
  %12 = getelementptr inbounds nuw %struct._lv_anim_t, ptr %11, i32 0, i32 5
  %13 = load ptr, ptr %12, align 8, !tbaa !46
  %14 = load ptr, ptr %3, align 8, !tbaa !21
  call void %13(ptr noundef %14)
  br label %15

15:                                               ; preds = %10, %1
  %16 = load ptr, ptr %2, align 8, !tbaa !21
  call void @lv_free(ptr noundef %16)
  call void @llvm.lifetime.end.p0(i64 8, ptr %3) #4
  ret void
}

; Function Attrs: nounwind uwtable
define zeroext i1 @lv_anim_delete(ptr noundef %0, ptr noundef %1) #0 {
  %3 = alloca ptr, align 8
  %4 = alloca ptr, align 8
  %5 = alloca ptr, align 8
  %6 = alloca i8, align 1
  %7 = alloca i8, align 1
  store ptr %0, ptr %3, align 8, !tbaa !21
  store ptr %1, ptr %4, align 8, !tbaa !21
  call void @llvm.lifetime.start.p0(i64 8, ptr %5) #4
  call void @llvm.lifetime.start.p0(i64 1, ptr %6) #4
  store i8 0, ptr %6, align 1, !tbaa !45
  %8 = call ptr @lv_ll_get_head(ptr noundef getelementptr inbounds nuw (%struct.lv_anim_state_t, ptr getelementptr inbounds nuw (%struct._lv_global_t, ptr @lv_global, i32 0, i32 23), i32 0, i32 3))
  store ptr %8, ptr %5, align 8, !tbaa !21
  br label %9

9:                                                ; preds = %40, %2
  %10 = load ptr, ptr %5, align 8, !tbaa !21
  %11 = icmp ne ptr %10, null
  br i1 %11, label %12, label %42

12:                                               ; preds = %9
  call void @llvm.lifetime.start.p0(i64 1, ptr %7) #4
  store i8 0, ptr %7, align 1, !tbaa !45
  %13 = load ptr, ptr %5, align 8, !tbaa !21
  %14 = getelementptr inbounds nuw %struct._lv_anim_t, ptr %13, i32 0, i32 0
  %15 = load ptr, ptr %14, align 8, !tbaa !36
  %16 = load ptr, ptr %3, align 8, !tbaa !21
  %17 = icmp eq ptr %15, %16
  br i1 %17, label %21, label %18

18:                                               ; preds = %12
  %19 = load ptr, ptr %3, align 8, !tbaa !21
  %20 = icmp eq ptr %19, null
  br i1 %20, label %21, label %32

21:                                               ; preds = %18, %12
  %22 = load ptr, ptr %5, align 8, !tbaa !21
  %23 = getelementptr inbounds nuw %struct._lv_anim_t, ptr %22, i32 0, i32 1
  %24 = load ptr, ptr %23, align 8, !tbaa !35
  %25 = load ptr, ptr %4, align 8, !tbaa !21
  %26 = icmp eq ptr %24, %25
  br i1 %26, label %30, label %27

27:                                               ; preds = %21
  %28 = load ptr, ptr %4, align 8, !tbaa !21
  %29 = icmp eq ptr %28, null
  br i1 %29, label %30, label %32

30:                                               ; preds = %27, %21
  %31 = load ptr, ptr %5, align 8, !tbaa !21
  call void @remove_anim(ptr noundef %31)
  call void @anim_mark_list_change()
  store i8 1, ptr %6, align 1, !tbaa !45
  store i8 1, ptr %7, align 1, !tbaa !45
  br label %32

32:                                               ; preds = %30, %27, %18
  %33 = load i8, ptr %7, align 1, !tbaa !45, !range !22, !noundef !23
  %34 = trunc i8 %33 to i1
  br i1 %34, label %35, label %37

35:                                               ; preds = %32
  %36 = call ptr @lv_ll_get_head(ptr noundef getelementptr inbounds nuw (%struct.lv_anim_state_t, ptr getelementptr inbounds nuw (%struct._lv_global_t, ptr @lv_global, i32 0, i32 23), i32 0, i32 3))
  br label %40

37:                                               ; preds = %32
  %38 = load ptr, ptr %5, align 8, !tbaa !21
  %39 = call ptr @lv_ll_get_next(ptr noundef getelementptr inbounds nuw (%struct.lv_anim_state_t, ptr getelementptr inbounds nuw (%struct._lv_global_t, ptr @lv_global, i32 0, i32 23), i32 0, i32 3), ptr noundef %38)
  br label %40

40:                                               ; preds = %37, %35
  %41 = phi ptr [ %36, %35 ], [ %39, %37 ]
  store ptr %41, ptr %5, align 8, !tbaa !21
  call void @llvm.lifetime.end.p0(i64 1, ptr %7) #4
  br label %9, !llvm.loop !48

42:                                               ; preds = %9
  %43 = load i8, ptr %6, align 1, !tbaa !45, !range !22, !noundef !23
  %44 = trunc i8 %43 to i1
  call void @llvm.lifetime.end.p0(i64 1, ptr %6) #4
  call void @llvm.lifetime.end.p0(i64 8, ptr %5) #4
  ret i1 %44
}