; Function Attrs: nounwind uwtable
define zeroext i1 @lv_anim_delete(ptr noundef readnone %0, ptr noundef readnone %1) local_unnamed_addr #0 {
  %3 = tail call ptr @lv_ll_get_head(ptr noundef nonnull getelementptr inbounds nuw (i8, ptr @lv_global, i64 304)) #8
  %.not19 = icmp eq ptr %3, null
  br i1 %.not19, label %._crit_edge, label %.lr.ph

.lr.ph:                                           ; preds = %2
  %4 = icmp eq ptr %0, null
  %5 = icmp eq ptr %1, null
  br i1 %4, label %.lr.ph.split.us, label %.lr.ph.split

.lr.ph.split.us:                                  ; preds = %.lr.ph
  br i1 %5, label %.lr.ph.split.us.split.us, label %.lr.ph.split.us.split

.lr.ph.split.us.split.us:                         ; preds = %.lr.ph.split.us, %14
  %.01420.us.us = phi ptr [ %15, %14 ], [ %3, %.lr.ph.split.us ]
  tail call void @lv_ll_remove(ptr noundef nonnull getelementptr inbounds nuw (i8, ptr @lv_global, i64 304), ptr noundef nonnull %.01420.us.us) #8
  %6 = getelementptr inbounds nuw i8, ptr %.01420.us.us, i64 40
  %7 = load ptr, ptr %6, align 8, !tbaa !39
  %.not.i.us.us = icmp eq ptr %7, null
  br i1 %.not.i.us.us, label %remove_anim.exit.us.us, label %8

8:                                                ; preds = %.lr.ph.split.us.split.us
  tail call void %7(ptr noundef nonnull %.01420.us.us) #8
  br label %remove_anim.exit.us.us

remove_anim.exit.us.us:                           ; preds = %8, %.lr.ph.split.us.split.us
  tail call void @lv_free(ptr noundef nonnull %.01420.us.us) #8
  store i8 1, ptr getelementptr inbounds nuw (i8, ptr @lv_global, i64 288), align 8, !tbaa !19
  %9 = tail call ptr @lv_ll_get_head(ptr noundef nonnull getelementptr inbounds nuw (i8, ptr @lv_global, i64 304)) #8
  %10 = icmp eq ptr %9, null
  %11 = load ptr, ptr getelementptr inbounds nuw (i8, ptr @lv_global, i64 296), align 8, !tbaa !3
  br i1 %10, label %13, label %12

12:                                               ; preds = %remove_anim.exit.us.us
  tail call void @lv_timer_resume(ptr noundef %11) #8
  br label %14

13:                                               ; preds = %remove_anim.exit.us.us
  tail call void @lv_timer_pause(ptr noundef %11) #8
  br label %14

14:                                               ; preds = %13, %12
  %15 = tail call ptr @lv_ll_get_head(ptr noundef nonnull getelementptr inbounds nuw (i8, ptr @lv_global, i64 304)) #8
  %.not.us.us = icmp eq ptr %15, null
  br i1 %.not.us.us, label %._crit_edge, label %.lr.ph.split.us.split.us, !llvm.loop !45

.lr.ph.split.us.split:                            ; preds = %.lr.ph.split.us, %31
  %.01321.us = phi i1 [ %.117.us, %31 ], [ false, %.lr.ph.split.us ]
  %.01420.us = phi ptr [ %32, %31 ], [ %3, %.lr.ph.split.us ]
  %16 = getelementptr inbounds nuw i8, ptr %.01420.us, i64 8
  %17 = load ptr, ptr %16, align 8, !tbaa !33
  %18 = icmp eq ptr %17, %1
  br i1 %18, label %20, label %anim_mark_list_change.exit.us

anim_mark_list_change.exit.us:                    ; preds = %.lr.ph.split.us.split
  %19 = tail call ptr @lv_ll_get_next(ptr noundef nonnull getelementptr inbounds nuw (i8, ptr @lv_global, i64 304), ptr noundef nonnull %.01420.us) #8
  br label %31

20:                                               ; preds = %.lr.ph.split.us.split
  tail call void @lv_ll_remove(ptr noundef nonnull getelementptr inbounds nuw (i8, ptr @lv_global, i64 304), ptr noundef nonnull %.01420.us) #8
  %21 = getelementptr inbounds nuw i8, ptr %.01420.us, i64 40
  %22 = load ptr, ptr %21, align 8, !tbaa !39
  %.not.i.us = icmp eq ptr %22, null
  br i1 %.not.i.us, label %remove_anim.exit.us, label %23

23:                                               ; preds = %20
  tail call void %22(ptr noundef nonnull %.01420.us) #8
  br label %remove_anim.exit.us

remove_anim.exit.us:                              ; preds = %23, %20
  tail call void @lv_free(ptr noundef nonnull %.01420.us) #8
  store i8 1, ptr getelementptr inbounds nuw (i8, ptr @lv_global, i64 288), align 8, !tbaa !19
  %24 = tail call ptr @lv_ll_get_head(ptr noundef nonnull getelementptr inbounds nuw (i8, ptr @lv_global, i64 304)) #8
  %25 = icmp eq ptr %24, null
  %26 = load ptr, ptr getelementptr inbounds nuw (i8, ptr @lv_global, i64 296), align 8, !tbaa !3
  br i1 %25, label %28, label %27

27:                                               ; preds = %remove_anim.exit.us
  tail call void @lv_timer_resume(ptr noundef %26) #8
  br label %29

28:                                               ; preds = %remove_anim.exit.us
  tail call void @lv_timer_pause(ptr noundef %26) #8
  br label %29

29:                                               ; preds = %28, %27
  %30 = tail call ptr @lv_ll_get_head(ptr noundef nonnull getelementptr inbounds nuw (i8, ptr @lv_global, i64 304)) #8
  br label %31

31:                                               ; preds = %29, %anim_mark_list_change.exit.us
  %.117.us = phi i1 [ true, %29 ], [ %.01321.us, %anim_mark_list_change.exit.us ]
  %32 = phi ptr [ %30, %29 ], [ %19, %anim_mark_list_change.exit.us ]
  %.not.us = icmp eq ptr %32, null
  br i1 %.not.us, label %._crit_edge, label %.lr.ph.split.us.split, !llvm.loop !45

.lr.ph.split:                                     ; preds = %.lr.ph
  br i1 %5, label %.lr.ph.split.split.us, label %.lr.ph.split.split

.lr.ph.split.split.us:                            ; preds = %.lr.ph.split, %47
  %.01321.us22 = phi i1 [ %.117.us28, %47 ], [ false, %.lr.ph.split ]
  %.01420.us23 = phi ptr [ %48, %47 ], [ %3, %.lr.ph.split ]
  %33 = load ptr, ptr %.01420.us23, align 8, !tbaa !34
  %34 = icmp eq ptr %33, %0
  br i1 %34, label %35, label %anim_mark_list_change.exit.us25

35:                                               ; preds = %.lr.ph.split.split.us
  tail call void @lv_ll_remove(ptr noundef nonnull getelementptr inbounds nuw (i8, ptr @lv_global, i64 304), ptr noundef nonnull %.01420.us23) #8
  %36 = getelementptr inbounds nuw i8, ptr %.01420.us23, i64 40
  %37 = load ptr, ptr %36, align 8, !tbaa !39
  %.not.i.us26 = icmp eq ptr %37, null
  br i1 %.not.i.us26, label %remove_anim.exit.us27, label %39

anim_mark_list_change.exit.us25:                  ; preds = %.lr.ph.split.split.us
  %38 = tail call ptr @lv_ll_get_next(ptr noundef nonnull getelementptr inbounds nuw (i8, ptr @lv_global, i64 304), ptr noundef nonnull %.01420.us23) #8
  br label %47

39:                                               ; preds = %35
  tail call void %37(ptr noundef nonnull %.01420.us23) #8
  br label %remove_anim.exit.us27

remove_anim.exit.us27:                            ; preds = %39, %35
  tail call void @lv_free(ptr noundef nonnull %.01420.us23) #8
  store i8 1, ptr getelementptr inbounds nuw (i8, ptr @lv_global, i64 288), align 8, !tbaa !19
  %40 = tail call ptr @lv_ll_get_head(ptr noundef nonnull getelementptr inbounds nuw (i8, ptr @lv_global, i64 304)) #8
  %41 = icmp eq ptr %40, null
  %42 = load ptr, ptr getelementptr inbounds nuw (i8, ptr @lv_global, i64 296), align 8, !tbaa !3
  br i1 %41, label %44, label %43

43:                                               ; preds = %remove_anim.exit.us27
  tail call void @lv_timer_resume(ptr noundef %42) #8
  br label %45

44:                                               ; preds = %remove_anim.exit.us27
  tail call void @lv_timer_pause(ptr noundef %42) #8
  br label %45

45:                                               ; preds = %44, %43
  %46 = tail call ptr @lv_ll_get_head(ptr noundef nonnull getelementptr inbounds nuw (i8, ptr @lv_global, i64 304)) #8
  br label %47

47:                                               ; preds = %45, %anim_mark_list_change.exit.us25
  %.117.us28 = phi i1 [ true, %45 ], [ %.01321.us22, %anim_mark_list_change.exit.us25 ]
  %48 = phi ptr [ %46, %45 ], [ %38, %anim_mark_list_change.exit.us25 ]
  %.not.us29 = icmp eq ptr %48, null
  br i1 %.not.us29, label %._crit_edge, label %.lr.ph.split.split.us, !llvm.loop !45

.lr.ph.split.split:                               ; preds = %.lr.ph.split, %67
  %.01321 = phi i1 [ %.117, %67 ], [ false, %.lr.ph.split ]
  %.01420 = phi ptr [ %68, %67 ], [ %3, %.lr.ph.split ]
  %49 = load ptr, ptr %.01420, align 8, !tbaa !34
  %50 = icmp eq ptr %49, %0
  br i1 %50, label %51, label %anim_mark_list_change.exit

51:                                               ; preds = %.lr.ph.split.split
  %52 = getelementptr inbounds nuw i8, ptr %.01420, i64 8
  %53 = load ptr, ptr %52, align 8, !tbaa !33
  %54 = icmp eq ptr %53, %1
  br i1 %54, label %55, label %anim_mark_list_change.exit

55:                                               ; preds = %51
  tail call void @lv_ll_remove(ptr noundef nonnull getelementptr inbounds nuw (i8, ptr @lv_global, i64 304), ptr noundef nonnull %.01420) #8
  %56 = getelementptr inbounds nuw i8, ptr %.01420, i64 40
  %57 = load ptr, ptr %56, align 8, !tbaa !39
  %.not.i = icmp eq ptr %57, null
  br i1 %.not.i, label %remove_anim.exit, label %58

58:                                               ; preds = %55
  tail call void %57(ptr noundef nonnull %.01420) #8
  br label %remove_anim.exit

remove_anim.exit:                                 ; preds = %55, %58
  tail call void @lv_free(ptr noundef nonnull %.01420) #8
  store i8 1, ptr getelementptr inbounds nuw (i8, ptr @lv_global, i64 288), align 8, !tbaa !19
  %59 = tail call ptr @lv_ll_get_head(ptr noundef nonnull getelementptr inbounds nuw (i8, ptr @lv_global, i64 304)) #8
  %60 = icmp eq ptr %59, null
  %61 = load ptr, ptr getelementptr inbounds nuw (i8, ptr @lv_global, i64 296), align 8, !tbaa !3
  br i1 %60, label %62, label %63

62:                                               ; preds = %remove_anim.exit
  tail call void @lv_timer_pause(ptr noundef %61) #8
  br label %64

63:                                               ; preds = %remove_anim.exit
  tail call void @lv_timer_resume(ptr noundef %61) #8
  br label %64

64:                                               ; preds = %62, %63
  %65 = tail call ptr @lv_ll_get_head(ptr noundef nonnull getelementptr inbounds nuw (i8, ptr @lv_global, i64 304)) #8
  br label %67

anim_mark_list_change.exit:                       ; preds = %.lr.ph.split.split, %51
  %66 = tail call ptr @lv_ll_get_next(ptr noundef nonnull getelementptr inbounds nuw (i8, ptr @lv_global, i64 304), ptr noundef nonnull %.01420) #8
  br label %67

67:                                               ; preds = %anim_mark_list_change.exit, %64
  %.117 = phi i1 [ true, %64 ], [ %.01321, %anim_mark_list_change.exit ]
  %68 = phi ptr [ %65, %64 ], [ %66, %anim_mark_list_change.exit ]
  %.not = icmp eq ptr %68, null
  br i1 %.not, label %._crit_edge, label %.lr.ph.split.split, !llvm.loop !45

._crit_edge:                                      ; preds = %67, %47, %31, %14, %2
  %.013.lcssa = phi i1 [ false, %2 ], [ true, %14 ], [ %.117.us, %31 ], [ %.117.us28, %47 ], [ %.117, %67 ]
  ret i1 %.013.lcssa
}